; Function Attrs: nounwind uwtable
define ptr @l_Lean_commitWhenSomeNoEx_x3f___rarg(ptr noundef %0, ptr noundef %1, ptr noundef %2, ptr noundef %3) #0 {
  %5 = getelementptr inbounds nuw i8, ptr %0, i64 16
  %6 = load ptr, ptr %5, align 8, !tbaa !4
  %7 = ptrtoint ptr %6 to i64
  %8 = and i64 %7, 1
  %.not = icmp eq i64 %8, 0
  br i1 %.not, label %9, label %lean_inc.exit32

9:                                                ; preds = %4
  %.val.i = load i32, ptr %6, align 4, !tbaa !8
  %10 = icmp sgt i32 %.val.i, 0
  br i1 %10, label %11, label %13, !prof !11

11:                                               ; preds = %9
  %12 = add nuw i32 %.val.i, 1
  store i32 %12, ptr %6, align 4, !tbaa !8
  br label %lean_inc.exit32

13:                                               ; preds = %9
  %.not.i = icmp eq i32 %.val.i, 0
  br i1 %.not.i, label %lean_inc.exit32, label %14

14:                                               ; preds = %13
  tail call void @lean_inc_ref_cold(ptr noundef nonnull %6) #3
  br label %lean_inc.exit32

lean_inc.exit32:                                  ; preds = %14, %13, %11, %4
  %15 = getelementptr inbounds nuw i8, ptr %2, i64 16
  %16 = load ptr, ptr %15, align 8, !tbaa !4
  %17 = ptrtoint ptr %16 to i64
  %18 = and i64 %17, 1
  %.not50 = icmp eq i64 %18, 0
  br i1 %.not50, label %19, label %lean_inc.exit31

19:                                               ; preds = %lean_inc.exit32
  %.val.i33 = load i32, ptr %16, align 4, !tbaa !8
  %20 = icmp sgt i32 %.val.i33, 0
  br i1 %20, label %21, label %23, !prof !11

21:                                               ; preds = %19
  %22 = add nuw i32 %.val.i33, 1
  store i32 %22, ptr %16, align 4, !tbaa !8
  br label %lean_inc.exit31

23:                                               ; preds = %19
  %.not.i34 = icmp eq i32 %.val.i33, 0
  br i1 %.not.i34, label %lean_inc.exit31, label %24

24:                                               ; preds = %23
  tail call void @lean_inc_ref_cold(ptr noundef nonnull %16) #3
  br label %lean_inc.exit31

lean_inc.exit31:                                  ; preds = %24, %23, %21, %lean_inc.exit32
  %25 = ptrtoint ptr %0 to i64
  %26 = and i64 %25, 1
  %.not51 = icmp eq i64 %26, 0
  br i1 %.not51, label %27, label %lean_inc.exit30

27:                                               ; preds = %lean_inc.exit31
  %.val.i36 = load i32, ptr %0, align 4, !tbaa !8
  %28 = icmp sgt i32 %.val.i36, 0
  br i1 %28, label %29, label %31, !prof !11

29:                                               ; preds = %27
  %30 = add nuw i32 %.val.i36, 1
  store i32 %30, ptr %0, align 4, !tbaa !8
  br label %34

31:                                               ; preds = %27
  %.not.i37 = icmp eq i32 %.val.i36, 0
  br i1 %.not.i37, label %34, label %32

32:                                               ; preds = %31
  tail call void @lean_inc_ref_cold(ptr noundef nonnull %0) #3
  br label %34

lean_inc.exit30:                                  ; preds = %lean_inc.exit31
  %33 = tail call ptr @l_Lean_commitWhenSome_x3f___rarg(ptr noundef nonnull %0, ptr noundef %1, ptr noundef nonnull %2, ptr noundef %3)
  br label %lean_inc.exit29

34:                                               ; preds = %32, %31, %29
  %35 = tail call ptr @l_Lean_commitWhenSome_x3f___rarg(ptr noundef nonnull %0, ptr noundef %1, ptr noundef nonnull %2, ptr noundef %3)
  %.val.i39 = load i32, ptr %0, align 4, !tbaa !8
  %36 = icmp sgt i32 %.val.i39, 0
  br i1 %36, label %37, label %39, !prof !11

37:                                               ; preds = %34
  %38 = add nuw i32 %.val.i39, 1
  store i32 %38, ptr %0, align 4, !tbaa !8
  br label %lean_inc.exit29

39:                                               ; preds = %34
  %.not.i40 = icmp eq i32 %.val.i39, 0
  br i1 %.not.i40, label %lean_inc.exit29, label %40

40:                                               ; preds = %39
  tail call void @lean_inc_ref_cold(ptr noundef nonnull %0) #3
  br label %lean_inc.exit29

lean_inc.exit29:                                  ; preds = %40, %39, %37, %lean_inc.exit30
  %41 = phi ptr [ %33, %lean_inc.exit30 ], [ %35, %37 ], [ %35, %39 ], [ %35, %40 ]
  tail call void @lean_inc_heartbeat() #3
  %42 = tail call noalias ptr @mi_malloc_small(i64 noundef 32) #3
  %43 = icmp eq ptr %42, null
  br i1 %43, label %44, label %lean_alloc_closure.exit

44:                                               ; preds = %lean_inc.exit29
  tail call void @lean_internal_panic_out_of_memory() #4
  unreachable

lean_alloc_closure.exit:                          ; preds = %lean_inc.exit29
  %45 = getelementptr inbounds nuw i8, ptr %42, i64 4
  store i32 1, ptr %42, align 4, !tbaa !8
  store i32 -184549344, ptr %45, align 4
  %46 = getelementptr inbounds nuw i8, ptr %42, i64 8
  store ptr @l_Lean_commitWhenSome_x3f___rarg___lambda__3, ptr %46, align 8, !tbaa !4
  %47 = getelementptr inbounds nuw i8, ptr %42, i64 16
  store i16 2, ptr %47, align 8, !tbaa !12
  %48 = getelementptr inbounds nuw i8, ptr %42, i64 18
  store i16 1, ptr %48, align 2, !tbaa !12
  %49 = getelementptr inbounds nuw i8, ptr %42, i64 24
  store ptr %0, ptr %49, align 8, !tbaa !4
  br i1 %.not, label %50, label %lean_inc.exit28

50:                                               ; preds = %lean_alloc_closure.exit
  %.val.i42 = load i32, ptr %6, align 4, !tbaa !8
  %51 = icmp sgt i32 %.val.i42, 0
  br i1 %51, label %52, label %54, !prof !11

52:                                               ; preds = %50
  %53 = add nuw i32 %.val.i42, 1
  store i32 %53, ptr %6, align 4, !tbaa !8
  br label %lean_inc.exit28

54:                                               ; preds = %50
  %.not.i43 = icmp eq i32 %.val.i42, 0
  br i1 %.not.i43, label %lean_inc.exit28, label %55

55:                                               ; preds = %54
  tail call void @lean_inc_ref_cold(ptr noundef nonnull %6) #3
  br label %lean_inc.exit28

lean_inc.exit28:                                  ; preds = %55, %54, %52, %lean_alloc_closure.exit
  %56 = tail call ptr @lean_apply_4(ptr noundef %6, ptr noundef nonnull inttoptr (i64 1 to ptr), ptr noundef nonnull inttoptr (i64 1 to ptr), ptr noundef %41, ptr noundef nonnull %42) #3
  br i1 %.not51, label %57, label %lean_inc.exit

57:                                               ; preds = %lean_inc.exit28
  %.val.i45 = load i32, ptr %0, align 4, !tbaa !8
  %58 = icmp sgt i32 %.val.i45, 0
  br i1 %58, label %59, label %61, !prof !11

59:                                               ; preds = %57
  %60 = add nuw i32 %.val.i45, 1
  store i32 %60, ptr %0, align 4, !tbaa !8
  br label %lean_inc.exit

61:                                               ; preds = %57
  %.not.i46 = icmp eq i32 %.val.i45, 0
  br i1 %.not.i46, label %lean_inc.exit, label %62

62:                                               ; preds = %61
  tail call void @lean_inc_ref_cold(ptr noundef nonnull %0) #3
  br label %lean_inc.exit

lean_inc.exit:                                    ; preds = %62, %61, %59, %lean_inc.exit28
  tail call void @lean_inc_heartbeat() #3
  %63 = tail call noalias ptr @mi_malloc_small(i64 noundef 32) #3
  %64 = icmp eq ptr %63, null
  br i1 %64, label %65, label %lean_alloc_closure.exit48

65:                                               ; preds = %lean_inc.exit
  tail call void @lean_internal_panic_out_of_memory() #4
  unreachable

lean_alloc_closure.exit48:                        ; preds = %lean_inc.exit
  %66 = getelementptr inbounds nuw i8, ptr %63, i64 4
  store i32 1, ptr %63, align 4, !tbaa !8
  store i32 -184549344, ptr %66, align 4
  %67 = getelementptr inbounds nuw i8, ptr %63, i64 8
  store ptr @l_Lean_commitWhenSome_x3f___rarg___lambda__1___boxed, ptr %67, align 8, !tbaa !4
  %68 = getelementptr inbounds nuw i8, ptr %63, i64 16
  store i16 2, ptr %68, align 8, !tbaa !12
  %69 = getelementptr inbounds nuw i8, ptr %63, i64 18
  store i16 1, ptr %69, align 2, !tbaa !12
  %70 = getelementptr inbounds nuw i8, ptr %63, i64 24
  store ptr %0, ptr %70, align 8, !tbaa !4
  %71 = tail call ptr @lean_apply_3(ptr noundef %16, ptr noundef nonnull inttoptr (i64 1 to ptr), ptr noundef %56, ptr noundef nonnull %63) #3
  tail call void @lean_inc_heartbeat() #3
  %72 = tail call noalias ptr @mi_malloc_small(i64 noundef 32) #3
  %73 = icmp eq ptr %72, null
  br i1 %73, label %74, label %lean_alloc_closure.exit49

74:                                               ; preds = %lean_alloc_closure.exit48
  tail call void @lean_internal_panic_out_of_memory() #4
  unreachable

lean_alloc_closure.exit49:                        ; preds = %lean_alloc_closure.exit48
  %75 = getelementptr inbounds nuw i8, ptr %72, i64 4
  store i32 1, ptr %72, align 4, !tbaa !8
  store i32 -184549344, ptr %75, align 4
  %76 = getelementptr inbounds nuw i8, ptr %72, i64 8
  store ptr @l_Lean_commitWhenSome_x3f___rarg___lambda__6, ptr %76, align 8, !tbaa !4
  %77 = getelementptr inbounds nuw i8, ptr %72, i64 16
  store i16 2, ptr %77, align 8, !tbaa !12
  %78 = getelementptr inbounds nuw i8, ptr %72, i64 18
  store i16 1, ptr %78, align 2, !tbaa !12
  %79 = getelementptr inbounds nuw i8, ptr %72, i64 24
  store ptr %0, ptr %79, align 8, !tbaa !4
  %80 = tail call ptr @lean_apply_4(ptr noundef %6, ptr noundef nonnull inttoptr (i64 1 to ptr), ptr noundef nonnull inttoptr (i64 1 to ptr), ptr noundef %71, ptr noundef nonnull %72) #3
  ret ptr %80
}